target datalayout = "e-m:e-p270:32:32-p271:32:32-p272:64:64-i64:64-i128:128-f80:128-n8:16:32:64-S128"
target triple = "x86_64-pc-linux-gnu"

%struct.WOFF2_PointRec_ = type { i32, i32, i8 }

; Function Attrs: nounwind uwtable
define internal i32 @safe_int_addition(i32 noundef %0, i32 noundef %1, ptr noundef %2) #0 {
  %4 = alloca i32, align 4
  %5 = alloca i32, align 4
  %6 = alloca i32, align 4
  %7 = alloca ptr, align 8
  store i32 %0, ptr %5, align 4
  store i32 %1, ptr %6, align 4
  store ptr %2, ptr %7, align 8
  %8 = load i32, ptr %5, align 4
  %9 = icmp sgt i32 %8, 0
  br i1 %9, label %10, label %15

10:                                               ; preds = %3
  %11 = load i32, ptr %6, align 4
  %12 = load i32, ptr %5, align 4
  %13 = sub nsw i32 2147483647, %12
  %14 = icmp sgt i32 %11, %13
  br i1 %14, label %23, label %15

15:                                               ; preds = %10, %3
  %16 = load i32, ptr %5, align 4
  %17 = icmp slt i32 %16, 0
  br i1 %17, label %18, label %24

18:                                               ; preds = %15
  %19 = load i32, ptr %6, align 4
  %20 = load i32, ptr %5, align 4
  %21 = sub nsw i32 -2147483648, %20
  %22 = icmp slt i32 %19, %21
  br i1 %22, label %23, label %24

23:                                               ; preds = %18, %10
  store i32 8, ptr %4, align 4
  br label %29

24:                                               ; preds = %18, %15
  %25 = load i32, ptr %5, align 4
  %26 = load i32, ptr %6, align 4
  %27 = add nsw i32 %25, %26
  %28 = load ptr, ptr %7, align 8
  store i32 %27, ptr %28, align 4
  store i32 0, ptr %4, align 4
  br label %29

29:                                               ; preds = %24, %23
  %30 = load i32, ptr %4, align 4
  ret i32 %30
}

; Function Attrs: nounwind uwtable
define internal i32 @with_sign(i8 noundef zeroext %0, i32 noundef %1) #0 {
  %3 = alloca i8, align 1
  %4 = alloca i32, align 4
  store i8 %0, ptr %3, align 1
  store i32 %1, ptr %4, align 4
  %5 = load i8, ptr %3, align 1
  %6 = zext i8 %5 to i32
  %7 = and i32 %6, 1
  %8 = icmp ne i32 %7, 0
  br i1 %8, label %9, label %11

9:                                                ; preds = %2
  %10 = load i32, ptr %4, align 4
  br label %14

11:                                               ; preds = %2
  %12 = load i32, ptr %4, align 4
  %13 = sub nsw i32 0, %12
  br label %14

14:                                               ; preds = %11, %9
  %15 = phi i32 [ %10, %9 ], [ %13, %11 ]
  ret i32 %15
}

; Function Attrs: nounwind uwtable
define internal i32 @triplet_decode(ptr noundef %0, ptr noundef %1, i64 noundef %2, i64 noundef %3, ptr noundef %4, ptr noundef %5) #0 {
  %7 = alloca i32, align 4
  %8 = alloca ptr, align 8
  %9 = alloca ptr, align 8
  %10 = alloca i64, align 8
  %11 = alloca i64, align 8
  %12 = alloca ptr, align 8
  %13 = alloca ptr, align 8
  %14 = alloca i32, align 4
  %15 = alloca i32, align 4
  %16 = alloca i32, align 4
  %17 = alloca i32, align 4
  %18 = alloca i32, align 4
  %19 = alloca i32, align 4
  %20 = alloca i32, align 4
  %21 = alloca i64, align 8
  %22 = alloca i64, align 8
  %23 = alloca i32, align 4
  %24 = alloca i8, align 1
  %25 = alloca i8, align 1
  store ptr %0, ptr %8, align 8
  store ptr %1, ptr %9, align 8
  store i64 %2, ptr %10, align 8
  store i64 %3, ptr %11, align 8
  store ptr %4, ptr %12, align 8
  store ptr %5, ptr %13, align 8
  store i32 0, ptr %14, align 4
  store i32 0, ptr %15, align 4
  store i64 0, ptr %21, align 8
  %26 = load i64, ptr %11, align 8
  %27 = load i64, ptr %10, align 8
  %28 = icmp ugt i64 %26, %27
  br i1 %28, label %29, label %30

29:                                               ; preds = %6
  store i32 8, ptr %7, align 4
  br label %304

30:                                               ; preds = %6
  store i32 0, ptr %23, align 4
  br label %31

31:                                               ; preds = %298, %30
  %32 = load i32, ptr %23, align 4
  %33 = zext i32 %32 to i64
  %34 = load i64, ptr %11, align 8
  %35 = icmp ult i64 %33, %34
  br i1 %35, label %36, label %301

36:                                               ; preds = %31
  %37 = load ptr, ptr %8, align 8
  %38 = load i32, ptr %23, align 4
  %39 = zext i32 %38 to i64
  %40 = getelementptr inbounds i8, ptr %37, i64 %39
  %41 = load i8, ptr %40, align 1
  store i8 %41, ptr %24, align 1
  %42 = load i8, ptr %24, align 1
  %43 = zext i8 %42 to i32
  %44 = ashr i32 %43, 7
  %45 = icmp ne i32 %44, 0
  %46 = xor i1 %45, true
  %47 = zext i1 %46 to i32
  %48 = trunc i32 %47 to i8
  store i8 %48, ptr %25, align 1
  %49 = load i8, ptr %24, align 1
  %50 = zext i8 %49 to i32
  %51 = and i32 %50, 127
  %52 = trunc i32 %51 to i8
  store i8 %52, ptr %24, align 1
  %53 = load i8, ptr %24, align 1
  %54 = zext i8 %53 to i32
  %55 = icmp slt i32 %54, 84
  br i1 %55, label %56, label %57

56:                                               ; preds = %36
  store i64 1, ptr %22, align 8
  br label %70

57:                                               ; preds = %36
  %58 = load i8, ptr %24, align 1
  %59 = zext i8 %58 to i32
  %60 = icmp slt i32 %59, 120
  br i1 %60, label %61, label %62

61:                                               ; preds = %57
  store i64 2, ptr %22, align 8
  br label %69

62:                                               ; preds = %57
  %63 = load i8, ptr %24, align 1
  %64 = zext i8 %63 to i32
  %65 = icmp slt i32 %64, 124
  br i1 %65, label %66, label %67

66:                                               ; preds = %62
  store i64 3, ptr %22, align 8
  br label %68

67:                                               ; preds = %62
  store i64 4, ptr %22, align 8
  br label %68

68:                                               ; preds = %67, %66
  br label %69

69:                                               ; preds = %68, %61
  br label %70

70:                                               ; preds = %69, %56
  %71 = load i64, ptr %21, align 8
  %72 = load i64, ptr %22, align 8
  %73 = add i64 %71, %72
  %74 = load i64, ptr %10, align 8
  %75 = icmp ugt i64 %73, %74
  br i1 %75, label %82, label %76

76:                                               ; preds = %70
  %77 = load i64, ptr %21, align 8
  %78 = load i64, ptr %22, align 8
  %79 = add i64 %77, %78
  %80 = load i64, ptr %21, align 8
  %81 = icmp ult i64 %79, %80
  br i1 %81, label %82, label %83

82:                                               ; preds = %76, %70
  store i32 8, ptr %7, align 4
  br label %304

83:                                               ; preds = %76
  %84 = load i8, ptr %24, align 1
  %85 = zext i8 %84 to i32
  %86 = icmp slt i32 %85, 10
  br i1 %86, label %87, label %100

87:                                               ; preds = %83
  store i32 0, ptr %16, align 4
  %88 = load i8, ptr %24, align 1
  %89 = load i8, ptr %24, align 1
  %90 = zext i8 %89 to i32
  %91 = and i32 %90, 14
  %92 = shl i32 %91, 7
  %93 = load ptr, ptr %9, align 8
  %94 = load i64, ptr %21, align 8
  %95 = getelementptr inbounds i8, ptr %93, i64 %94
  %96 = load i8, ptr %95, align 1
  %97 = zext i8 %96 to i32
  %98 = add nsw i32 %92, %97
  %99 = call i32 @with_sign(i8 noundef zeroext %88, i32 noundef %98)
  store i32 %99, ptr %17, align 4
  br label %264

100:                                              ; preds = %83
  %101 = load i8, ptr %24, align 1
  %102 = zext i8 %101 to i32
  %103 = icmp slt i32 %102, 20
  br i1 %103, label %104, label %118

104:                                              ; preds = %100
  %105 = load i8, ptr %24, align 1
  %106 = load i8, ptr %24, align 1
  %107 = zext i8 %106 to i32
  %108 = sub nsw i32 %107, 10
  %109 = and i32 %108, 14
  %110 = shl i32 %109, 7
  %111 = load ptr, ptr %9, align 8
  %112 = load i64, ptr %21, align 8
  %113 = getelementptr inbounds i8, ptr %111, i64 %112
  %114 = load i8, ptr %113, align 1
  %115 = zext i8 %114 to i32
  %116 = add nsw i32 %110, %115
  %117 = call i32 @with_sign(i8 noundef zeroext %105, i32 noundef %116)
  store i32 %117, ptr %16, align 4
  store i32 0, ptr %17, align 4
  br label %263

118:                                              ; preds = %100
  %119 = load i8, ptr %24, align 1
  %120 = zext i8 %119 to i32
  %121 = icmp slt i32 %120, 84
  br i1 %121, label %122, label %151

122:                                              ; preds = %118
  %123 = load i8, ptr %24, align 1
  %124 = zext i8 %123 to i32
  %125 = sub nsw i32 %124, 20
  store i32 %125, ptr %18, align 4
  %126 = load ptr, ptr %9, align 8
  %127 = load i64, ptr %21, align 8
  %128 = getelementptr inbounds i8, ptr %126, i64 %127
  %129 = load i8, ptr %128, align 1
  %130 = zext i8 %129 to i32
  store i32 %130, ptr %19, align 4
  %131 = load i8, ptr %24, align 1
  %132 = load i32, ptr %18, align 4
  %133 = and i32 %132, 48
  %134 = add nsw i32 1, %133
  %135 = load i32, ptr %19, align 4
  %136 = ashr i32 %135, 4
  %137 = add nsw i32 %134, %136
  %138 = call i32 @with_sign(i8 noundef zeroext %131, i32 noundef %137)
  store i32 %138, ptr %16, align 4
  %139 = load i8, ptr %24, align 1
  %140 = zext i8 %139 to i32
  %141 = ashr i32 %140, 1
  %142 = trunc i32 %141 to i8
  %143 = load i32, ptr %18, align 4
  %144 = and i32 %143, 12
  %145 = shl i32 %144, 2
  %146 = add nsw i32 1, %145
  %147 = load i32, ptr %19, align 4
  %148 = and i32 %147, 15
  %149 = add nsw i32 %146, %148
  %150 = call i32 @with_sign(i8 noundef zeroext %142, i32 noundef %149)
  store i32 %150, ptr %17, align 4
  br label %262

151:                                              ; preds = %118
  %152 = load i8, ptr %24, align 1
  %153 = zext i8 %152 to i32
  %154 = icmp slt i32 %153, 120
  br i1 %154, label %155, label %188

155:                                              ; preds = %151
  %156 = load i8, ptr %24, align 1
  %157 = zext i8 %156 to i32
  %158 = sub nsw i32 %157, 84
  store i32 %158, ptr %18, align 4
  %159 = load i8, ptr %24, align 1
  %160 = load i32, ptr %18, align 4
  %161 = sdiv i32 %160, 12
  %162 = shl i32 %161, 8
  %163 = add nsw i32 1, %162
  %164 = load ptr, ptr %9, align 8
  %165 = load i64, ptr %21, align 8
  %166 = getelementptr inbounds i8, ptr %164, i64 %165
  %167 = load i8, ptr %166, align 1
  %168 = zext i8 %167 to i32
  %169 = add nsw i32 %163, %168
  %170 = call i32 @with_sign(i8 noundef zeroext %159, i32 noundef %169)
  store i32 %170, ptr %16, align 4
  %171 = load i8, ptr %24, align 1
  %172 = zext i8 %171 to i32
  %173 = ashr i32 %172, 1
  %174 = trunc i32 %173 to i8
  %175 = load i32, ptr %18, align 4
  %176 = srem i32 %175, 12
  %177 = ashr i32 %176, 2
  %178 = shl i32 %177, 8
  %179 = add nsw i32 1, %178
  %180 = load ptr, ptr %9, align 8
  %181 = load i64, ptr %21, align 8
  %182 = add i64 %181, 1
  %183 = getelementptr inbounds i8, ptr %180, i64 %182
  %184 = load i8, ptr %183, align 1
  %185 = zext i8 %184 to i32
  %186 = add nsw i32 %179, %185
  %187 = call i32 @with_sign(i8 noundef zeroext %174, i32 noundef %186)
  store i32 %187, ptr %17, align 4
  br label %261

188:                                              ; preds = %151
  %189 = load i8, ptr %24, align 1
  %190 = zext i8 %189 to i32
  %191 = icmp slt i32 %190, 124
  br i1 %191, label %192, label %225

192:                                              ; preds = %188
  %193 = load ptr, ptr %9, align 8
  %194 = load i64, ptr %21, align 8
  %195 = add i64 %194, 1
  %196 = getelementptr inbounds i8, ptr %193, i64 %195
  %197 = load i8, ptr %196, align 1
  %198 = zext i8 %197 to i32
  store i32 %198, ptr %20, align 4
  %199 = load i8, ptr %24, align 1
  %200 = load ptr, ptr %9, align 8
  %201 = load i64, ptr %21, align 8
  %202 = getelementptr inbounds i8, ptr %200, i64 %201
  %203 = load i8, ptr %202, align 1
  %204 = zext i8 %203 to i32
  %205 = shl i32 %204, 4
  %206 = load i32, ptr %20, align 4
  %207 = ashr i32 %206, 4
  %208 = add nsw i32 %205, %207
  %209 = call i32 @with_sign(i8 noundef zeroext %199, i32 noundef %208)
  store i32 %209, ptr %16, align 4
  %210 = load i8, ptr %24, align 1
  %211 = zext i8 %210 to i32
  %212 = ashr i32 %211, 1
  %213 = trunc i32 %212 to i8
  %214 = load i32, ptr %20, align 4
  %215 = and i32 %214, 15
  %216 = shl i32 %215, 8
  %217 = load ptr, ptr %9, align 8
  %218 = load i64, ptr %21, align 8
  %219 = add i64 %218, 2
  %220 = getelementptr inbounds i8, ptr %217, i64 %219
  %221 = load i8, ptr %220, align 1
  %222 = zext i8 %221 to i32
  %223 = add nsw i32 %216, %222
  %224 = call i32 @with_sign(i8 noundef zeroext %213, i32 noundef %223)
  store i32 %224, ptr %17, align 4
  br label %260

225:                                              ; preds = %188
  %226 = load i8, ptr %24, align 1
  %227 = load ptr, ptr %9, align 8
  %228 = load i64, ptr %21, align 8
  %229 = getelementptr inbounds i8, ptr %227, i64 %228
  %230 = load i8, ptr %229, align 1
  %231 = zext i8 %230 to i32
  %232 = shl i32 %231, 8
  %233 = load ptr, ptr %9, align 8
  %234 = load i64, ptr %21, align 8
  %235 = add i64 %234, 1
  %236 = getelementptr inbounds i8, ptr %233, i64 %235
  %237 = load i8, ptr %236, align 1
  %238 = zext i8 %237 to i32
  %239 = add nsw i32 %232, %238
  %240 = call i32 @with_sign(i8 noundef zeroext %226, i32 noundef %239)
  store i32 %240, ptr %16, align 4
  %241 = load i8, ptr %24, align 1
  %242 = zext i8 %241 to i32
  %243 = ashr i32 %242, 1
  %244 = trunc i32 %243 to i8
  %245 = load ptr, ptr %9, align 8
  %246 = load i64, ptr %21, align 8
  %247 = add i64 %246, 2
  %248 = getelementptr inbounds i8, ptr %245, i64 %247
  %249 = load i8, ptr %248, align 1
  %250 = zext i8 %249 to i32
  %251 = shl i32 %250, 8
  %252 = load ptr, ptr %9, align 8
  %253 = load i64, ptr %21, align 8
  %254 = add i64 %253, 3
  %255 = getelementptr inbounds i8, ptr %252, i64 %254
  %256 = load i8, ptr %255, align 1
  %257 = zext i8 %256 to i32
  %258 = add nsw i32 %251, %257
  %259 = call i32 @with_sign(i8 noundef zeroext %244, i32 noundef %258)
  store i32 %259, ptr %17, align 4
  br label %260

260:                                              ; preds = %225, %192
  br label %261

261:                                              ; preds = %260, %155
  br label %262

262:                                              ; preds = %261, %122
  br label %263

263:                                              ; preds = %262, %104
  br label %264

264:                                              ; preds = %263, %87
  %265 = load i64, ptr %22, align 8
  %266 = load i64, ptr %21, align 8
  %267 = add i64 %266, %265
  store i64 %267, ptr %21, align 8
  %268 = load i32, ptr %14, align 4
  %269 = load i32, ptr %16, align 4
  %270 = call i32 @safe_int_addition(i32 noundef %268, i32 noundef %269, ptr noundef %14)
  %271 = icmp ne i32 %270, 0
  br i1 %271, label %272, label %273

272:                                              ; preds = %264
  store i32 8, ptr %7, align 4
  br label %304

273:                                              ; preds = %264
  %274 = load i32, ptr %15, align 4
  %275 = load i32, ptr %17, align 4
  %276 = call i32 @safe_int_addition(i32 noundef %274, i32 noundef %275, ptr noundef %15)
  %277 = icmp ne i32 %276, 0
  br i1 %277, label %278, label %279

278:                                              ; preds = %273
  store i32 8, ptr %7, align 4
  br label %304

279:                                              ; preds = %273
  %280 = load i32, ptr %14, align 4
  %281 = load ptr, ptr %12, align 8
  %282 = load i32, ptr %23, align 4
  %283 = zext i32 %282 to i64
  %284 = getelementptr inbounds %struct.WOFF2_PointRec_, ptr %281, i64 %283
  %285 = getelementptr inbounds %struct.WOFF2_PointRec_, ptr %284, i32 0, i32 0
  store i32 %280, ptr %285, align 4
  %286 = load i32, ptr %15, align 4
  %287 = load ptr, ptr %12, align 8
  %288 = load i32, ptr %23, align 4
  %289 = zext i32 %288 to i64
  %290 = getelementptr inbounds %struct.WOFF2_PointRec_, ptr %287, i64 %289
  %291 = getelementptr inbounds %struct.WOFF2_PointRec_, ptr %290, i32 0, i32 1
  store i32 %286, ptr %291, align 4
  %292 = load i8, ptr %25, align 1
  %293 = load ptr, ptr %12, align 8
  %294 = load i32, ptr %23, align 4
  %295 = zext i32 %294 to i64
  %296 = getelementptr inbounds %struct.WOFF2_PointRec_, ptr %293, i64 %295
  %297 = getelementptr inbounds %struct.WOFF2_PointRec_, ptr %296, i32 0, i32 2
  store i8 %292, ptr %297, align 4
  br label %298

298:                                              ; preds = %279
  %299 = load i32, ptr %23, align 4
  %300 = add i32 %299, 1
  store i32 %300, ptr %23, align 4
  br label %31, !llvm.loop !91

301:                                              ; preds = %31
  %302 = load i64, ptr %21, align 8
  %303 = load ptr, ptr %13, align 8
  store i64 %302, ptr %303, align 8
  store i32 0, ptr %7, align 4
  br label %304

304:                                              ; preds = %301, %278, %272, %82, %29
  %305 = load i32, ptr %7, align 4
  ret i32 %305
}