; Function Attrs: nofree norecurse nosync nounwind memory(argmem: readwrite) uwtable
define internal fastcc range(i32 0, 9) i32 @triplet_decode(ptr nocapture noundef readonly %0, ptr nocapture noundef readonly %1, i64 noundef %2, i64 noundef %3, ptr nocapture noundef writeonly %4, ptr nocapture noundef writeonly %5) unnamed_addr #14 {
  %7 = icmp ugt i64 %3, %2
  br i1 %7, label %safe_int_addition.exit.thread, label %.preheader

.preheader:                                       ; preds = %6
  %.not133 = icmp eq i64 %3, 0
  br i1 %.not133, label %._crit_edge, label %.lr.ph

.lr.ph:                                           ; preds = %.preheader, %155
  %8 = phi i64 [ %161, %155 ], [ 0, %.preheader ]
  %.082132 = phi i32 [ %160, %155 ], [ 0, %.preheader ]
  %.084131 = phi i64 [ %20, %155 ], [ 0, %.preheader ]
  %.0110130 = phi i32 [ %156, %155 ], [ 0, %.preheader ]
  %.0111129 = phi i32 [ %147, %155 ], [ 0, %.preheader ]
  %9 = getelementptr inbounds i8, ptr %0, i64 %8
  %10 = load i8, ptr %9, align 1
  %.not = icmp sgt i8 %10, -1
  %11 = zext i1 %.not to i8
  %12 = and i8 %10, 127
  %13 = zext nneg i8 %12 to i32
  %14 = icmp ult i8 %12, 84
  br i1 %14, label %19, label %15

15:                                               ; preds = %.lr.ph
  %16 = icmp ult i8 %12, 120
  br i1 %16, label %19, label %17

17:                                               ; preds = %15
  %18 = icmp ult i8 %12, 124
  %. = select i1 %18, i64 3, i64 4
  br label %19

19:                                               ; preds = %17, %15, %.lr.ph
  %.083 = phi i64 [ 1, %.lr.ph ], [ 2, %15 ], [ %., %17 ]
  %20 = add i64 %.083, %.084131
  %21 = icmp ugt i64 %20, %2
  %22 = icmp ult i64 %20, %.084131
  %or.cond = or i1 %21, %22
  br i1 %or.cond, label %safe_int_addition.exit.thread, label %23

23:                                               ; preds = %19
  %24 = icmp ult i8 %12, 10
  br i1 %24, label %.thread, label %34

.thread:                                          ; preds = %23
  %25 = shl nuw nsw i32 %13, 7
  %26 = and i32 %25, 1792
  %27 = getelementptr inbounds i8, ptr %1, i64 %.084131
  %28 = load i8, ptr %27, align 1
  %29 = zext i8 %28 to i32
  %30 = or disjoint i32 %26, %29
  %31 = and i8 %10, 1
  %.not.i = icmp eq i8 %31, 0
  %32 = sub nsw i32 0, %30
  %33 = select i1 %.not.i, i32 %32, i32 %30
  br label %142

34:                                               ; preds = %23
  %35 = icmp ult i8 %12, 20
  br i1 %35, label %36, label %47

36:                                               ; preds = %34
  %37 = shl nuw nsw i32 %13, 7
  %38 = add nuw nsw i32 %37, 768
  %39 = and i32 %38, 1792
  %40 = getelementptr inbounds i8, ptr %1, i64 %.084131
  %41 = load i8, ptr %40, align 1
  %42 = zext i8 %41 to i32
  %43 = or disjoint i32 %39, %42
  %44 = and i8 %10, 1
  %.not.i94 = icmp eq i8 %44, 0
  %45 = sub nsw i32 0, %43
  %46 = select i1 %.not.i94, i32 %45, i32 %43
  br label %138

47:                                               ; preds = %34
  br i1 %14, label %48, label %68

48:                                               ; preds = %47
  %49 = add nsw i32 %13, -20
  %50 = getelementptr inbounds i8, ptr %1, i64 %.084131
  %51 = load i8, ptr %50, align 1
  %52 = zext i8 %51 to i32
  %53 = and i32 %49, 48
  %54 = or disjoint i32 %53, 1
  %55 = lshr i32 %52, 4
  %56 = add nuw nsw i32 %55, %54
  %57 = and i8 %10, 1
  %.not.i95 = icmp eq i8 %57, 0
  %58 = sub nsw i32 0, %56
  %59 = select i1 %.not.i95, i32 %58, i32 %56
  %60 = shl nsw i32 %49, 2
  %61 = and i32 %60, 48
  %62 = or disjoint i32 %61, 1
  %63 = and i32 %52, 15
  %64 = add nuw nsw i32 %63, %62
  %65 = and i8 %10, 2
  %.not.i96 = icmp eq i8 %65, 0
  %66 = sub nsw i32 0, %64
  %67 = select i1 %.not.i96, i32 %66, i32 %64
  br label %138

68:                                               ; preds = %47
  %69 = icmp ult i8 %12, 120
  br i1 %69, label %70, label %92

70:                                               ; preds = %68
  %.lhs.trunc = add nsw i8 %12, -84
  %71 = udiv i8 %.lhs.trunc, 12
  %.sext = zext nneg i8 %71 to i32
  %72 = shl nuw nsw i32 %.sext, 8
  %73 = or disjoint i32 %72, 1
  %74 = getelementptr inbounds i8, ptr %1, i64 %.084131
  %75 = load i8, ptr %74, align 1
  %76 = zext i8 %75 to i32
  %77 = add nuw nsw i32 %73, %76
  %78 = and i8 %10, 1
  %.not.i97 = icmp eq i8 %78, 0
  %79 = sub nsw i32 0, %77
  %80 = select i1 %.not.i97, i32 %79, i32 %77
  %81 = urem i8 %.lhs.trunc, 12
  %.sext127 = zext nneg i8 %81 to i32
  %82 = shl nuw nsw i32 %.sext127, 6
  %83 = and i32 %82, 768
  %84 = or disjoint i32 %83, 1
  %85 = getelementptr i8, ptr %74, i64 1
  %86 = load i8, ptr %85, align 1
  %87 = zext i8 %86 to i32
  %88 = add nuw nsw i32 %84, %87
  %89 = and i8 %10, 2
  %.not.i98 = icmp eq i8 %89, 0
  %90 = sub nsw i32 0, %88
  %91 = select i1 %.not.i98, i32 %90, i32 %88
  br label %138

92:                                               ; preds = %68
  %93 = icmp ult i8 %12, 124
  %94 = getelementptr i8, ptr %1, i64 %.084131
  br i1 %93, label %95, label %116

95:                                               ; preds = %92
  %96 = getelementptr i8, ptr %94, i64 1
  %97 = load i8, ptr %96, align 1
  %98 = zext i8 %97 to i32
  %99 = load i8, ptr %94, align 1
  %100 = zext i8 %99 to i32
  %101 = shl nuw nsw i32 %100, 4
  %102 = lshr i32 %98, 4
  %103 = or disjoint i32 %101, %102
  %104 = and i8 %10, 1
  %.not.i99 = icmp eq i8 %104, 0
  %105 = sub nsw i32 0, %103
  %106 = select i1 %.not.i99, i32 %105, i32 %103
  %107 = shl nuw nsw i32 %98, 8
  %108 = and i32 %107, 3840
  %109 = getelementptr i8, ptr %94, i64 2
  %110 = load i8, ptr %109, align 1
  %111 = zext i8 %110 to i32
  %112 = or disjoint i32 %108, %111
  %113 = and i8 %10, 2
  %.not.i100 = icmp eq i8 %113, 0
  %114 = sub nsw i32 0, %112
  %115 = select i1 %.not.i100, i32 %114, i32 %112
  br label %138

116:                                              ; preds = %92
  %117 = load i8, ptr %94, align 1
  %118 = zext i8 %117 to i32
  %119 = shl nuw nsw i32 %118, 8
  %120 = getelementptr i8, ptr %94, i64 1
  %121 = load i8, ptr %120, align 1
  %122 = zext i8 %121 to i32
  %123 = or disjoint i32 %119, %122
  %124 = and i8 %10, 1
  %.not.i101 = icmp eq i8 %124, 0
  %125 = sub nsw i32 0, %123
  %126 = select i1 %.not.i101, i32 %125, i32 %123
  %127 = getelementptr i8, ptr %94, i64 2
  %128 = load i8, ptr %127, align 1
  %129 = zext i8 %128 to i32
  %130 = shl nuw nsw i32 %129, 8
  %131 = getelementptr i8, ptr %94, i64 3
  %132 = load i8, ptr %131, align 1
  %133 = zext i8 %132 to i32
  %134 = or disjoint i32 %130, %133
  %135 = and i8 %10, 2
  %.not.i102 = icmp eq i8 %135, 0
  %136 = sub nsw i32 0, %134
  %137 = select i1 %.not.i102, i32 %136, i32 %134
  br label %138

138:                                              ; preds = %36, %70, %116, %95, %48
  %.086 = phi i32 [ 0, %36 ], [ %67, %48 ], [ %91, %70 ], [ %115, %95 ], [ %137, %116 ]
  %.085 = phi i32 [ %46, %36 ], [ %59, %48 ], [ %80, %70 ], [ %106, %95 ], [ %126, %116 ]
  %139 = icmp sgt i32 %.0111129, 0
  %140 = sub nuw nsw i32 2147483647, %.0111129
  %141 = icmp slt i32 %140, %.085
  %or.cond.i = select i1 %139, i1 %141, i1 false
  br i1 %or.cond.i, label %safe_int_addition.exit.thread, label %142

142:                                              ; preds = %.thread, %138
  %.085118 = phi i32 [ 0, %.thread ], [ %.085, %138 ]
  %.086116 = phi i32 [ %33, %.thread ], [ %.086, %138 ]
  %143 = icmp slt i32 %.0111129, 0
  %144 = sub nsw i32 -2147483648, %.0111129
  %145 = icmp sgt i32 %144, %.085118
  %or.cond12.i = select i1 %143, i1 %145, i1 false
  br i1 %or.cond12.i, label %safe_int_addition.exit.thread, label %146

146:                                              ; preds = %142
  %147 = add nsw i32 %.085118, %.0111129
  %148 = icmp sgt i32 %.0110130, 0
  %149 = sub nuw nsw i32 2147483647, %.0110130
  %150 = icmp slt i32 %149, %.086116
  %or.cond.i103 = select i1 %148, i1 %150, i1 false
  br i1 %or.cond.i103, label %safe_int_addition.exit.thread, label %151

151:                                              ; preds = %146
  %152 = icmp slt i32 %.0110130, 0
  %153 = sub nsw i32 -2147483648, %.0110130
  %154 = icmp sgt i32 %153, %.086116
  %or.cond12.i104 = select i1 %152, i1 %154, i1 false
  br i1 %or.cond12.i104, label %safe_int_addition.exit.thread, label %155

155:                                              ; preds = %151
  %156 = add nsw i32 %.086116, %.0110130
  %157 = getelementptr inbounds %struct.WOFF2_PointRec_, ptr %4, i64 %8
  store i32 %147, ptr %157, align 4
  %158 = getelementptr inbounds i8, ptr %157, i64 4
  store i32 %156, ptr %158, align 4
  %159 = getelementptr inbounds i8, ptr %157, i64 8
  store i8 %11, ptr %159, align 4
  %160 = add i32 %.082132, 1
  %161 = zext i32 %160 to i64
  %162 = icmp ult i64 %161, %3
  br i1 %162, label %.lr.ph, label %._crit_edge, !llvm.loop !113

._crit_edge:                                      ; preds = %155, %.preheader
  %.084.lcssa = phi i64 [ 0, %.preheader ], [ %20, %155 ]
  store i64 %.084.lcssa, ptr %5, align 8
  br label %safe_int_addition.exit.thread

safe_int_addition.exit.thread:                    ; preds = %146, %151, %138, %142, %19, %6, %._crit_edge
  %.0 = phi i32 [ 0, %._crit_edge ], [ 8, %6 ], [ 8, %19 ], [ 8, %142 ], [ 8, %138 ], [ 8, %151 ], [ 8, %146 ]
  ret i32 %.0
}